; Function Attrs: mustprogress uwtable
define void @_ZNK32pxrInternal_v0_24__pxrReserved__19HdDataSourceLocator7PrependERKNS_7TfTokenE(ptr dead_on_unwind noalias writable sret(%"class.pxrInternal_v0_24__pxrReserved__::HdDataSourceLocator") align 8 %0, ptr noundef nonnull align 8 dereferenceable(56) %1, ptr noundef nonnull align 8 dereferenceable(8) %2) local_unnamed_addr #0 align 2 personality ptr @__gxx_personality_v0 {
  tail call void @_ZN32pxrInternal_v0_24__pxrReserved__19HdDataSourceLocatorC1Ev(ptr noundef nonnull align 8 dereferenceable(56) %0)
  invoke void @_ZN32pxrInternal_v0_24__pxrReserved__13TfSmallVectorINS_7TfTokenELj6EE12emplace_backIJRKS1_EEEvDpOT_(ptr noundef nonnull align 8 dereferenceable(56) %0, ptr noundef nonnull align 8 dereferenceable(8) %2)
          to label %4 unwind label %21

4:                                                ; preds = %3
  %5 = getelementptr inbounds nuw i8, ptr %0, i64 52
  %6 = load i32, ptr %5, align 4
  %7 = icmp ult i32 %6, 7
  %8 = load ptr, ptr %0, align 8
  %spec.select.i.i = select i1 %7, ptr %0, ptr %8
  %9 = getelementptr inbounds nuw i8, ptr %0, i64 48
  %10 = load i32, ptr %9, align 8
  %11 = zext i32 %10 to i64
  %12 = getelementptr inbounds %"class.pxrInternal_v0_24__pxrReserved__::TfToken", ptr %spec.select.i.i, i64 %11
  %13 = getelementptr inbounds nuw i8, ptr %1, i64 52
  %14 = load i32, ptr %13, align 4
  %15 = icmp ult i32 %14, 7
  %16 = load ptr, ptr %1, align 8
  %spec.select.i.i4 = select i1 %15, ptr %1, ptr %16
  %17 = getelementptr inbounds nuw i8, ptr %1, i64 48
  %18 = load i32, ptr %17, align 8
  %19 = zext i32 %18 to i64
  %20 = getelementptr inbounds %"class.pxrInternal_v0_24__pxrReserved__::TfToken", ptr %spec.select.i.i4, i64 %19
  invoke void @_ZN32pxrInternal_v0_24__pxrReserved__13TfSmallVectorINS_7TfTokenELj6EE6insertIPKS1_EEvPS1_T_S7_(ptr noundef nonnull align 8 dereferenceable(56) %0, ptr noundef %12, ptr noundef %spec.select.i.i4, ptr noundef %20)
          to label %23 unwind label %21

21:                                               ; preds = %3, %4
  %22 = landingpad { ptr, i32 }
          cleanup
  tail call void @_ZN32pxrInternal_v0_24__pxrReserved__19HdDataSourceLocatorD2Ev(ptr noundef nonnull align 8 dereferenceable(56) %0) #19
  resume { ptr, i32 } %22

23:                                               ; preds = %4
  ret void
}